target datalayout = "e-m:e-p270:32:32-p271:32:32-p272:64:64-i64:64-i128:128-f80:128-n8:16:32:64-S128"
target triple = "x86_64-pc-linux-gnu"

%struct.raxNode = type { i32, [0 x i8] }

; Function Attrs: nounwind uwtable
define dso_local ptr @raxGetData(ptr noundef %0) #0 {
  %2 = alloca ptr, align 8
  %3 = alloca ptr, align 8
  %4 = alloca ptr, align 8
  %5 = alloca ptr, align 8
  store ptr %0, ptr %3, align 8, !tbaa !11
  %6 = load ptr, ptr %3, align 8, !tbaa !11
  %7 = load i32, ptr %6, align 4
  %8 = lshr i32 %7, 1
  %9 = and i32 %8, 1
  %10 = icmp ne i32 %9, 0
  br i1 %10, label %11, label %12

11:                                               ; preds = %1
  store ptr null, ptr %2, align 8
  br label %64

12:                                               ; preds = %1
  call void @llvm.lifetime.start.p0(i64 8, ptr %4) #13
  %13 = load ptr, ptr %3, align 8, !tbaa !11
  %14 = load ptr, ptr %3, align 8, !tbaa !11
  %15 = load i32, ptr %14, align 4
  %16 = lshr i32 %15, 3
  %17 = zext i32 %16 to i64
  %18 = add i64 4, %17
  %19 = load ptr, ptr %3, align 8, !tbaa !11
  %20 = load i32, ptr %19, align 4
  %21 = lshr i32 %20, 3
  %22 = add nsw i32 %21, 4
  %23 = sext i32 %22 to i64
  %24 = urem i64 %23, 8
  %25 = sub i64 8, %24
  %26 = and i64 %25, 7
  %27 = add i64 %18, %26
  %28 = load ptr, ptr %3, align 8, !tbaa !11
  %29 = load i32, ptr %28, align 4
  %30 = lshr i32 %29, 2
  %31 = and i32 %30, 1
  %32 = icmp ne i32 %31, 0
  br i1 %32, label %33, label %34

33:                                               ; preds = %12
  br label %40

34:                                               ; preds = %12
  %35 = load ptr, ptr %3, align 8, !tbaa !11
  %36 = load i32, ptr %35, align 4
  %37 = lshr i32 %36, 3
  %38 = zext i32 %37 to i64
  %39 = mul i64 8, %38
  br label %40

40:                                               ; preds = %34, %33
  %41 = phi i64 [ 8, %33 ], [ %39, %34 ]
  %42 = add i64 %27, %41
  %43 = load ptr, ptr %3, align 8, !tbaa !11
  %44 = load i32, ptr %43, align 4
  %45 = and i32 %44, 1
  %46 = icmp ne i32 %45, 0
  br i1 %46, label %47, label %54

47:                                               ; preds = %40
  %48 = load ptr, ptr %3, align 8, !tbaa !11
  %49 = load i32, ptr %48, align 4
  %50 = lshr i32 %49, 1
  %51 = and i32 %50, 1
  %52 = icmp ne i32 %51, 0
  %53 = xor i1 %52, true
  br label %54

54:                                               ; preds = %47, %40
  %55 = phi i1 [ false, %40 ], [ %53, %47 ]
  %56 = zext i1 %55 to i32
  %57 = sext i32 %56 to i64
  %58 = mul i64 %57, 8
  %59 = add i64 %42, %58
  %60 = getelementptr inbounds nuw i8, ptr %13, i64 %59
  %61 = getelementptr inbounds i8, ptr %60, i64 -8
  store ptr %61, ptr %4, align 8, !tbaa !16
  call void @llvm.lifetime.start.p0(i64 8, ptr %5) #13
  %62 = load ptr, ptr %4, align 8, !tbaa !16
  call void @llvm.memcpy.p0.p0.i64(ptr align 8 %5, ptr align 8 %62, i64 8, i1 false)
  %63 = load ptr, ptr %5, align 8, !tbaa !16
  store ptr %63, ptr %2, align 8
  call void @llvm.lifetime.end.p0(i64 8, ptr %5) #13
  call void @llvm.lifetime.end.p0(i64 8, ptr %4) #13
  br label %64

64:                                               ; preds = %54, %11
  %65 = load ptr, ptr %2, align 8
  ret ptr %65
}

; Function Attrs: nounwind uwtable
define dso_local i64 @raxTouch(ptr noundef %0) #0 {
  %2 = alloca ptr, align 8
  %3 = alloca i64, align 8
  %4 = alloca i32, align 4
  %5 = alloca ptr, align 8
  %6 = alloca i32, align 4
  %7 = alloca i32, align 4
  %8 = alloca ptr, align 8
  store ptr %0, ptr %2, align 8, !tbaa !11
  call void @llvm.lifetime.start.p0(i64 8, ptr %3) #13
  store i64 0, ptr %3, align 8, !tbaa !9
  %9 = load ptr, ptr %2, align 8, !tbaa !11
  %10 = load i32, ptr %9, align 4
  %11 = and i32 %10, 1
  %12 = icmp ne i32 %11, 0
  br i1 %12, label %13, label %19

13:                                               ; preds = %1
  %14 = load ptr, ptr %2, align 8, !tbaa !11
  %15 = call ptr @raxGetData(ptr noundef %14)
  %16 = ptrtoint ptr %15 to i64
  %17 = load i64, ptr %3, align 8, !tbaa !9
  %18 = add i64 %17, %16
  store i64 %18, ptr %3, align 8, !tbaa !9
  br label %19

19:                                               ; preds = %13, %1
  call void @llvm.lifetime.start.p0(i64 4, ptr %4) #13
  %20 = load ptr, ptr %2, align 8, !tbaa !11
  %21 = load i32, ptr %20, align 4
  %22 = lshr i32 %21, 2
  %23 = and i32 %22, 1
  %24 = icmp ne i32 %23, 0
  br i1 %24, label %25, label %26

25:                                               ; preds = %19
  br label %30

26:                                               ; preds = %19
  %27 = load ptr, ptr %2, align 8, !tbaa !11
  %28 = load i32, ptr %27, align 4
  %29 = lshr i32 %28, 3
  br label %30

30:                                               ; preds = %26, %25
  %31 = phi i32 [ 1, %25 ], [ %29, %26 ]
  store i32 %31, ptr %4, align 4, !tbaa !5
  call void @llvm.lifetime.start.p0(i64 8, ptr %5) #13
  %32 = load ptr, ptr %2, align 8, !tbaa !11
  %33 = getelementptr inbounds nuw %struct.raxNode, ptr %32, i32 0, i32 1
  %34 = getelementptr inbounds [0 x i8], ptr %33, i64 0, i64 0
  %35 = load ptr, ptr %2, align 8, !tbaa !11
  %36 = load i32, ptr %35, align 4
  %37 = lshr i32 %36, 3
  %38 = sext i32 %37 to i64
  %39 = getelementptr inbounds i8, ptr %34, i64 %38
  %40 = load ptr, ptr %2, align 8, !tbaa !11
  %41 = load i32, ptr %40, align 4
  %42 = lshr i32 %41, 3
  %43 = add nsw i32 %42, 4
  %44 = sext i32 %43 to i64
  %45 = urem i64 %44, 8
  %46 = sub i64 8, %45
  %47 = and i64 %46, 7
  %48 = getelementptr inbounds nuw i8, ptr %39, i64 %47
  store ptr %48, ptr %5, align 8, !tbaa !18
  call void @llvm.lifetime.start.p0(i64 4, ptr %6) #13
  store i32 0, ptr %6, align 4, !tbaa !5
  call void @llvm.lifetime.start.p0(i64 4, ptr %7) #13
  store i32 0, ptr %7, align 4, !tbaa !5
  br label %49

49:                                               ; preds = %85, %30
  %50 = load i32, ptr %7, align 4, !tbaa !5
  %51 = load i32, ptr %4, align 4, !tbaa !5
  %52 = icmp slt i32 %50, %51
  br i1 %52, label %54, label %53

53:                                               ; preds = %49
  call void @llvm.lifetime.end.p0(i64 4, ptr %7) #13
  br label %88

54:                                               ; preds = %49
  %55 = load i32, ptr %4, align 4, !tbaa !5
  %56 = icmp sgt i32 %55, 1
  br i1 %56, label %57, label %67

57:                                               ; preds = %54
  %58 = load ptr, ptr %2, align 8, !tbaa !11
  %59 = getelementptr inbounds nuw %struct.raxNode, ptr %58, i32 0, i32 1
  %60 = load i32, ptr %7, align 4, !tbaa !5
  %61 = sext i32 %60 to i64
  %62 = getelementptr inbounds [0 x i8], ptr %59, i64 0, i64 %61
  %63 = load i8, ptr %62, align 1, !tbaa !17
  %64 = zext i8 %63 to i64
  %65 = load i64, ptr %3, align 8, !tbaa !9
  %66 = add i64 %65, %64
  store i64 %66, ptr %3, align 8, !tbaa !9
  br label %67

67:                                               ; preds = %57, %54
  call void @llvm.lifetime.start.p0(i64 8, ptr %8) #13
  %68 = load ptr, ptr %5, align 8, !tbaa !18
  call void @llvm.memcpy.p0.p0.i64(ptr align 8 %8, ptr align 8 %68, i64 8, i1 false)
  %69 = load ptr, ptr %8, align 8, !tbaa !11
  %70 = icmp eq ptr %69, inttoptr (i64 106764128 to ptr)
  br i1 %70, label %71, label %74

71:                                               ; preds = %67
  %72 = load i32, ptr %6, align 4, !tbaa !5
  %73 = add nsw i32 %72, 1
  store i32 %73, ptr %6, align 4, !tbaa !5
  br label %74

74:                                               ; preds = %71, %67
  %75 = load i32, ptr %6, align 4, !tbaa !5
  %76 = icmp sgt i32 %75, 1
  br i1 %76, label %77, label %78

77:                                               ; preds = %74
  call void @exit(i32 noundef 1) #16
  unreachable

78:                                               ; preds = %74
  %79 = load ptr, ptr %8, align 8, !tbaa !11
  %80 = call i64 @raxTouch(ptr noundef %79)
  %81 = load i64, ptr %3, align 8, !tbaa !9
  %82 = add i64 %81, %80
  store i64 %82, ptr %3, align 8, !tbaa !9
  %83 = load ptr, ptr %5, align 8, !tbaa !18
  %84 = getelementptr inbounds nuw ptr, ptr %83, i32 1
  store ptr %84, ptr %5, align 8, !tbaa !18
  call void @llvm.lifetime.end.p0(i64 8, ptr %8) #13
  br label %85

85:                                               ; preds = %78
  %86 = load i32, ptr %7, align 4, !tbaa !5
  %87 = add nsw i32 %86, 1
  store i32 %87, ptr %7, align 4, !tbaa !5
  br label %49, !llvm.loop !66

88:                                               ; preds = %53
  %89 = load i64, ptr %3, align 8, !tbaa !9
  call void @llvm.lifetime.end.p0(i64 4, ptr %6) #13
  call void @llvm.lifetime.end.p0(i64 8, ptr %5) #13
  call void @llvm.lifetime.end.p0(i64 4, ptr %4) #13
  call void @llvm.lifetime.end.p0(i64 8, ptr %3) #13
  ret i64 %89
}