; Function Attrs: nofree nounwind uwtable
define dso_local i64 @raxTouch(ptr noundef readonly captures(none) %0) local_unnamed_addr #20 {
  br label %tailrecurse

tailrecurse:                                      ; preds = %._crit_edge.loopexit, %1
  %accumulator.tr = phi i64 [ 0, %1 ], [ %35, %._crit_edge.loopexit ]
  %.tr = phi ptr [ %0, %1 ], [ %.0.copyload, %._crit_edge.loopexit ]
  %2 = load i32, ptr %.tr, align 4
  %3 = and i32 %2, 3
  %or.cond = icmp eq i32 %3, 1
  br i1 %or.cond, label %4, label %.raxGetData.exit_crit_edge

.raxGetData.exit_crit_edge:                       ; preds = %tailrecurse
  %.pre = and i32 %2, 4
  %.pre40 = lshr i32 %2, 3
  br label %raxGetData.exit

4:                                                ; preds = %tailrecurse
  %5 = lshr i32 %2, 3
  %6 = zext nneg i32 %5 to i64
  %7 = xor i32 %5, 3
  %.neg.i = add nuw nsw i32 %7, 1
  %8 = and i32 %.neg.i, 7
  %9 = zext nneg i32 %8 to i64
  %10 = and i32 %2, 4
  %.not11.i = icmp eq i32 %10, 0
  %11 = shl nuw nsw i64 %6, 3
  %spec.select.i = select i1 %.not11.i, i64 %11, i64 8
  %12 = getelementptr inbounds nuw i8, ptr %.tr, i64 %6
  %13 = getelementptr inbounds nuw i8, ptr %12, i64 4
  %14 = getelementptr inbounds nuw i8, ptr %13, i64 %9
  %15 = getelementptr inbounds nuw i8, ptr %14, i64 %spec.select.i
  %.0.copyload.i = load ptr, ptr %15, align 8
  %16 = ptrtoint ptr %.0.copyload.i to i64
  br label %raxGetData.exit

raxGetData.exit:                                  ; preds = %.raxGetData.exit_crit_edge, %4
  %.pre-phi41 = phi i32 [ %.pre40, %.raxGetData.exit_crit_edge ], [ %5, %4 ]
  %.pre-phi = phi i32 [ %.pre, %.raxGetData.exit_crit_edge ], [ %10, %4 ]
  %.0 = phi i64 [ 0, %.raxGetData.exit_crit_edge ], [ %16, %4 ]
  %.not27 = icmp eq i32 %.pre-phi, 0
  %spec.select = select i1 %.not27, i32 %.pre-phi41, i32 1
  %17 = getelementptr inbounds nuw i8, ptr %.tr, i64 4
  %.not = icmp eq i32 %spec.select, 0
  br i1 %.not, label %._crit_edge, label %.lr.ph

.lr.ph:                                           ; preds = %raxGetData.exit
  %18 = zext nneg i32 %.pre-phi41 to i64
  %19 = getelementptr inbounds nuw i8, ptr %17, i64 %18
  %20 = xor i32 %.pre-phi41, 3
  %.neg = add nuw nsw i32 %20, 1
  %21 = and i32 %.neg, 7
  %22 = zext nneg i32 %21 to i64
  %23 = getelementptr inbounds nuw i8, ptr %19, i64 %22
  %.not34 = icmp eq i32 %spec.select, 1
  br i1 %.not34, label %._crit_edge.loopexit, label %.lr.ph.split.us.preheader

.lr.ph.split.us.preheader:                        ; preds = %.lr.ph
  %wide.trip.count = zext nneg i32 %spec.select to i64
  br label %.lr.ph.split.us

.lr.ph.split.us:                                  ; preds = %.lr.ph.split.us.preheader, %27
  %indvars.iv = phi i64 [ 0, %.lr.ph.split.us.preheader ], [ %indvars.iv.next, %27 ]
  %.133.us = phi i64 [ %.0, %.lr.ph.split.us.preheader ], [ %33, %27 ]
  %.02331.us = phi i32 [ 0, %.lr.ph.split.us.preheader ], [ %spec.select28.us, %27 ]
  %.02530.us = phi ptr [ %23, %.lr.ph.split.us.preheader ], [ %34, %27 ]
  %.0.copyload.us = load ptr, ptr %.02530.us, align 8
  %24 = icmp eq ptr %.0.copyload.us, inttoptr (i64 106764128 to ptr)
  %25 = zext i1 %24 to i32
  %spec.select28.us = add nuw nsw i32 %.02331.us, %25
  %26 = icmp samesign ugt i32 %spec.select28.us, 1
  br i1 %26, label %.split.us, label %27

27:                                               ; preds = %.lr.ph.split.us
  %28 = getelementptr inbounds nuw [0 x i8], ptr %17, i64 0, i64 %indvars.iv
  %29 = load i8, ptr %28, align 1, !tbaa !15
  %30 = zext i8 %29 to i64
  %31 = add i64 %.133.us, %30
  %32 = tail call i64 @raxTouch(ptr noundef %.0.copyload.us)
  %33 = add i64 %32, %31
  %34 = getelementptr inbounds nuw i8, ptr %.02530.us, i64 8
  %indvars.iv.next = add nuw nsw i64 %indvars.iv, 1
  %exitcond.not = icmp eq i64 %indvars.iv.next, %wide.trip.count
  br i1 %exitcond.not, label %._crit_edge, label %.lr.ph.split.us, !llvm.loop !53

._crit_edge.loopexit:                             ; preds = %.lr.ph
  %.0.copyload = load ptr, ptr %23, align 8
  %35 = add i64 %accumulator.tr, %.0
  br label %tailrecurse

._crit_edge:                                      ; preds = %27, %raxGetData.exit
  %.1.lcssa = phi i64 [ %.0, %raxGetData.exit ], [ %33, %27 ]
  %accumulator.ret.tr = add i64 %accumulator.tr, %.1.lcssa
  ret i64 %accumulator.ret.tr

.split.us:                                        ; preds = %.lr.ph.split.us
  tail call void @exit(i32 noundef 1) #31
  unreachable
}